target datalayout = "e-m:e-p270:32:32-p271:32:32-p272:64:64-i64:64-i128:128-f80:128-n8:16:32:64-S128"
target triple = "x86_64-pc-linux-gnu"

%struct.MqcState = type { ptr, ptr, i32, i32, i32, [19 x i8], i32 }

; Function Attrs: nounwind uwtable
define void @ff_mqc_initenc(ptr noundef %0, ptr noundef %1) #0 {
  %3 = alloca ptr, align 8
  %4 = alloca ptr, align 8
  store ptr %0, ptr %3, align 8, !tbaa !4
  store ptr %1, ptr %4, align 8, !tbaa !9
  %5 = load ptr, ptr %3, align 8, !tbaa !4
  call void @ff_mqc_init_contexts(ptr noundef %5)
  %6 = load ptr, ptr %3, align 8, !tbaa !4
  %7 = getelementptr inbounds nuw %struct.MqcState, ptr %6, i32 0, i32 2
  store i32 32768, ptr %7, align 8, !tbaa !11
  %8 = load ptr, ptr %3, align 8, !tbaa !4
  %9 = getelementptr inbounds nuw %struct.MqcState, ptr %8, i32 0, i32 3
  store i32 0, ptr %9, align 4, !tbaa !14
  %10 = load ptr, ptr %4, align 8, !tbaa !9
  %11 = getelementptr inbounds i8, ptr %10, i64 -1
  %12 = load ptr, ptr %3, align 8, !tbaa !4
  %13 = getelementptr inbounds nuw %struct.MqcState, ptr %12, i32 0, i32 0
  store ptr %11, ptr %13, align 8, !tbaa !15
  %14 = load ptr, ptr %4, align 8, !tbaa !9
  %15 = load ptr, ptr %3, align 8, !tbaa !4
  %16 = getelementptr inbounds nuw %struct.MqcState, ptr %15, i32 0, i32 1
  store ptr %14, ptr %16, align 8, !tbaa !16
  %17 = load ptr, ptr %3, align 8, !tbaa !4
  %18 = getelementptr inbounds nuw %struct.MqcState, ptr %17, i32 0, i32 0
  %19 = load ptr, ptr %18, align 8, !tbaa !15
  %20 = load i8, ptr %19, align 1, !tbaa !17
  %21 = zext i8 %20 to i32
  %22 = icmp eq i32 %21, 255
  %23 = zext i1 %22 to i32
  %24 = add nsw i32 12, %23
  %25 = load ptr, ptr %3, align 8, !tbaa !4
  %26 = getelementptr inbounds nuw %struct.MqcState, ptr %25, i32 0, i32 4
  store i32 %24, ptr %26, align 8, !tbaa !18
  ret void
}