; Function Attrs: nounwind uwtable
define void @ff_mqc_initenc(ptr noundef %0, ptr noundef %1) local_unnamed_addr #0 {
  tail call void @ff_mqc_init_contexts(ptr noundef %0) #5
  %3 = getelementptr inbounds nuw i8, ptr %0, i64 16
  store i32 32768, ptr %3, align 8, !tbaa !4
  %4 = getelementptr inbounds nuw i8, ptr %0, i64 20
  store i32 0, ptr %4, align 4, !tbaa !11
  %5 = getelementptr inbounds i8, ptr %1, i64 -1
  store ptr %5, ptr %0, align 8, !tbaa !12
  %6 = getelementptr inbounds nuw i8, ptr %0, i64 8
  store ptr %1, ptr %6, align 8, !tbaa !13
  %7 = load i8, ptr %5, align 1, !tbaa !14
  %8 = icmp eq i8 %7, -1
  %9 = select i1 %8, i32 13, i32 12
  %10 = getelementptr inbounds nuw i8, ptr %0, i64 24
  store i32 %9, ptr %10, align 8, !tbaa !15
  ret void
}